#include <math.h>
#include <stdio.h>
#include <stdlib.h>
#include <string.h>

int main(){
	int n,i,j=0,l;
	char zfc[33];
	scanf("%d",&n);
for(j=0;j<n;j++)
  {
    scanf("%s",zfc);
	l=strlen(zfc);
    i=l-2;
	if(zfc[i]=='e'&&zfc[i+1]=='r')
		zfc[i]='\0';
	else if(zfc[i]=='l'&&zfc[i+1]=='y')
		zfc[i]='\0';
    else if(zfc[i]=='n'&&zfc[i+1]=='g'&&zfc[i-1]=='i')
		zfc[i-1]='\0';

   printf("%s\n",zfc);

  }
  

return 0;
}